(dp0
I1
Vlabel
p1
sI2
VPumpkin
p2
sI3
VIce cream
p3
sI4
VSalad
p4
sI5
VBread
p5
sI6
VCoconut
p6
sI7
VGrape
p7
sI8
VMushroom
p8
sI9
VHoneycomb
p9
sI10
VFish
p10
sI11
VOyster
p11
sI12
VPomegranate
p12
sI13
VRadish
p13
sI14
VWatermelon
p14
sI15
VPasta
p15
sI16
VCabbage
p16
sI17
VStrawberry
p17
sI18
VApple
p18
sI19
VOrange
p19
sI20
VPotato
p20
sI21
VBanana
p21
sI22
VPear
p22
sI23
VShellfish
p23
sI24
VTomato
p24
sI25
VCheese
p25
sI26
VCarrot
p26
sI27
VShrimp
p27
sI28
VLemon
p28
sI29
VArtichoke
p29
sI30
VBroccoli
p30
sI31
VBell pepper
p31
sI32
VPineapple
p32
sI33
VLobster
p33
sI34
VMilk
p34
sI35
VMango
p35
sI36
VGrapefruit
p36
sI37
VCantaloupe
p37
sI38
VPeach
p38
sI39
VCream
p39
sI40
VZucchini
p40
sI41
VCucumber
p41
sI42
VWinter melon
p42
s.